(dp1
Vdefault
p2
(dp3
Vfullscreen
p4
I00
sVprotocol_reps
p5
I1
sVscale
p6
(lp7
I1
aI1
asVbackground
p8
(lp9
I0
aI0
aI0
asVpref_dir
p10
I-1
sVframepack
p11
I00
sVdisplay_size
p12
(lp13
I400
aI400
asVsmall_win
p14
I00
sVtrigger_wait
p15
I0
sVcapture
p16
I00
sVlog
p17
I01
sVframe_rate
p18
I60
sVoffset
p19
(lp20
I0
aI0
asVposition
p21
(lp22
I1520
aI0
asVgamma_correction
p23
S'default'
p24
sVpix_per_micron
p25
I1
sVscreen_num
p26
I2
ss.