(dp1
Vlarge
p2
(dp3
S'fullscreen'
p4
I00
sS'protocol_reps'
p5
I1
sS'scale'
p6
(lp7
I1
aI1
asS'background'
p8
(lp9
I-1
aI0
aI-1
asS'pref_dir'
p10
I-1
sS'display_size'
p11
(lp12
I1280
aI1024
asS'trigger_wait'
p13
F0.10000000000000001
sS'capture'
p14
I00
sS'log'
p15
I01
sS'frame_rate'
p16
I60
sS'offset'
p17
(lp18
I0
aI0
asS'position'
p19
(lp20
I0
aI0
asS'gamma_correction'
p21
S'default'
p22
sS'pix_per_micron'
p23
I1
sS'screen_num'
p24
S'2'
ss.