(dp1
Vmon1
p2
(dp3
S'fullscreen'
p4
I00
sS'protocol_reps'
p5
I1
sS'scale'
p6
(lp7
I1
aI1
asS'background'
p8
(lp9
I-1
aI0
aI-1
asS'display_size'
p10
(lp11
I1920
aI1080
asS'trigger_wait'
p12
I0
sS'log'
p13
I01
sS'frame_rate'
p14
I60
sS'offset'
p15
(lp16
I0
aI0
asS'position'
p17
(lp18
I0
aI0
asS'gamma_correction'
p19
Vhome
p20
sS'pix_per_micron'
p21
I1
sS'screen_num'
p22
I1
ss.